target datalayout = "e-m:e-p270:32:32-p271:32:32-p272:64:64-i64:64-i128:128-f80:128-n8:16:32:64-S128"
target triple = "x86_64-pc-linux-gnu"

%struct.bb_state = type { %struct.bb_config, ptr, ptr, ptr, %union.pthread_mutex_t, i64, i64, ptr, i64, i64, i64, ptr, %union.pthread_cond_t, i8, %union.pthread_mutex_t, i64, i32, i32, i64, i64 }
%struct.bb_config = type { ptr, ptr, ptr, ptr, ptr, ptr, ptr, ptr, i32, ptr, ptr, i64, i32, ptr, i32, i32, i32, i32, ptr, ptr, ptr, ptr, i32 }
%union.pthread_cond_t = type { %struct.__pthread_cond_s }
%struct.__pthread_cond_s = type { %union.__atomic_wide_counter, %union.__atomic_wide_counter, [2 x i32], [2 x i32], i32, i32, [2 x i32] }
%union.__atomic_wide_counter = type { i64 }
%union.pthread_mutex_t = type { %struct.__pthread_mutex_s }
%struct.__pthread_mutex_s = type { i32, i32, i32, i32, i32, i16, i16, %struct.__pthread_internal_list }
%struct.__pthread_internal_list = type { ptr, ptr }
%struct.bb_alloc = type { ptr, ptr, ptr, i32, i32, i8, i64, i64, i32, i32, i32, i32, ptr, ptr, i8, ptr, ptr, ptr, ptr, i64, i64, i16, i64, i64, i32 }

@.str = private unnamed_addr constant [22 x i8] c"burst_buffer_common.c\00", align 1
@__func__.bb_alloc_name_rec = private unnamed_addr constant [18 x i8] c"bb_alloc_name_rec\00", align 1

; Function Attrs: nounwind uwtable
define dso_local ptr @bb_alloc_name_rec(ptr noundef %0, ptr noundef %1, i32 noundef %2) #0 {
  %4 = alloca ptr, align 8
  %5 = alloca ptr, align 8
  %6 = alloca i32, align 4
  %7 = alloca ptr, align 8
  %8 = alloca i64, align 8
  %9 = alloca i32, align 4
  store ptr %0, ptr %4, align 8
  store ptr %1, ptr %5, align 8
  store i32 %2, ptr %6, align 4
  call void @llvm.lifetime.start.p0(i64 8, ptr %7) #9
  store ptr null, ptr %7, align 8
  call void @llvm.lifetime.start.p0(i64 8, ptr %8) #9
  %10 = call i64 @time(ptr noundef null) #9
  store i64 %10, ptr %8, align 8
  call void @llvm.lifetime.start.p0(i64 4, ptr %9) #9
  %11 = load i64, ptr %8, align 8
  %12 = load ptr, ptr %4, align 8
  %13 = getelementptr inbounds nuw %struct.bb_state, ptr %12, i32 0, i32 9
  store i64 %11, ptr %13, align 8
  %14 = call ptr @slurm_xcalloc(i64 noundef 1, i64 noundef 176, i1 noundef zeroext true, i1 noundef zeroext false, ptr noundef @.str, i32 noundef 1132, ptr noundef @__func__.bb_alloc_name_rec)
  store ptr %14, ptr %7, align 8
  %15 = load i32, ptr %6, align 4
  %16 = urem i32 %15, 100
  store i32 %16, ptr %9, align 4
  %17 = load ptr, ptr %7, align 8
  %18 = getelementptr inbounds nuw %struct.bb_alloc, ptr %17, i32 0, i32 11
  store i32 -559074232, ptr %18, align 4
  %19 = load ptr, ptr %4, align 8
  %20 = getelementptr inbounds nuw %struct.bb_state, ptr %19, i32 0, i32 1
  %21 = load ptr, ptr %20, align 8
  %22 = load i32, ptr %9, align 4
  %23 = sext i32 %22 to i64
  %24 = getelementptr inbounds ptr, ptr %21, i64 %23
  %25 = load ptr, ptr %24, align 8
  %26 = load ptr, ptr %7, align 8
  %27 = getelementptr inbounds nuw %struct.bb_alloc, ptr %26, i32 0, i32 13
  store ptr %25, ptr %27, align 8
  %28 = load ptr, ptr %7, align 8
  %29 = load ptr, ptr %4, align 8
  %30 = getelementptr inbounds nuw %struct.bb_state, ptr %29, i32 0, i32 1
  %31 = load ptr, ptr %30, align 8
  %32 = load i32, ptr %9, align 4
  %33 = sext i32 %32 to i64
  %34 = getelementptr inbounds ptr, ptr %31, i64 %33
  store ptr %28, ptr %34, align 8
  %35 = load ptr, ptr %7, align 8
  %36 = getelementptr inbounds nuw %struct.bb_alloc, ptr %35, i32 0, i32 4
  store i32 -2, ptr %36, align 4
  %37 = load ptr, ptr %5, align 8
  %38 = call ptr @xstrdup(ptr noundef %37)
  %39 = load ptr, ptr %7, align 8
  %40 = getelementptr inbounds nuw %struct.bb_alloc, ptr %39, i32 0, i32 12
  store ptr %38, ptr %40, align 8
  %41 = load ptr, ptr %7, align 8
  %42 = getelementptr inbounds nuw %struct.bb_alloc, ptr %41, i32 0, i32 21
  store i16 2, ptr %42, align 8
  %43 = load i64, ptr %8, align 8
  %44 = load ptr, ptr %7, align 8
  %45 = getelementptr inbounds nuw %struct.bb_alloc, ptr %44, i32 0, i32 22
  store i64 %43, ptr %45, align 8
  %46 = load i64, ptr %8, align 8
  %47 = load ptr, ptr %7, align 8
  %48 = getelementptr inbounds nuw %struct.bb_alloc, ptr %47, i32 0, i32 19
  store i64 %46, ptr %48, align 8
  %49 = load i32, ptr %6, align 4
  %50 = load ptr, ptr %7, align 8
  %51 = getelementptr inbounds nuw %struct.bb_alloc, ptr %50, i32 0, i32 24
  store i32 %49, ptr %51, align 8
  %52 = load ptr, ptr %7, align 8
  call void @llvm.lifetime.end.p0(i64 4, ptr %9) #9
  call void @llvm.lifetime.end.p0(i64 8, ptr %8) #9
  call void @llvm.lifetime.end.p0(i64 8, ptr %7) #9
  ret ptr %52
}