; Function Attrs: nounwind uwtable
define dso_local ptr @bb_alloc_name_rec(ptr noundef captures(none) initializes((264, 272)) %0, ptr noundef %1, i32 noundef %2) local_unnamed_addr #0 {
  %4 = tail call i64 @time(ptr noundef null) #17
  %5 = getelementptr inbounds nuw i8, ptr %0, i64 264
  store i64 %4, ptr %5, align 8
  %6 = tail call ptr @slurm_xcalloc(i64 noundef 1, i64 noundef 176, i1 noundef zeroext true, i1 noundef zeroext false, ptr noundef nonnull @.str, i32 noundef 1132, ptr noundef nonnull @__func__.bb_alloc_name_rec) #17
  %7 = urem i32 %2, 100
  %8 = getelementptr inbounds nuw i8, ptr %6, i64 68
  store i32 -559074232, ptr %8, align 4
  %9 = getelementptr inbounds nuw i8, ptr %0, i64 168
  %10 = load ptr, ptr %9, align 8
  %11 = zext nneg i32 %7 to i64
  %12 = getelementptr inbounds nuw ptr, ptr %10, i64 %11
  %13 = load ptr, ptr %12, align 8
  %14 = getelementptr inbounds nuw i8, ptr %6, i64 80
  store ptr %13, ptr %14, align 8
  %15 = load ptr, ptr %9, align 8
  %16 = getelementptr inbounds nuw ptr, ptr %15, i64 %11
  store ptr %6, ptr %16, align 8
  %17 = getelementptr inbounds nuw i8, ptr %6, i64 28
  store i32 -2, ptr %17, align 4
  %18 = tail call ptr @xstrdup(ptr noundef %1) #17
  %19 = getelementptr inbounds nuw i8, ptr %6, i64 72
  store ptr %18, ptr %19, align 8
  %20 = getelementptr inbounds nuw i8, ptr %6, i64 144
  store i16 2, ptr %20, align 8
  %21 = getelementptr inbounds nuw i8, ptr %6, i64 152
  store i64 %4, ptr %21, align 8
  %22 = getelementptr inbounds nuw i8, ptr %6, i64 128
  store i64 %4, ptr %22, align 8
  %23 = getelementptr inbounds nuw i8, ptr %6, i64 168
  store i32 %2, ptr %23, align 8
  ret ptr %6
}